; Function Attrs: mustprogress nofree norecurse nosync nounwind willreturn memory(none) uwtable
define hidden zeroext range(i8 0, 4) i8 @mbedtls_ssl_sig_from_pk_alg(i32 noundef %0) local_unnamed_addr #9 {
  %2 = icmp ult i32 %0, 5
  %switch.cast = zext i32 %0 to i40
  %switch.shiftamt = shl nuw nsw i40 %switch.cast, 3
  %switch.downshift = lshr i40 12885098752, %switch.shiftamt
  %switch.masked = trunc i40 %switch.downshift to i8
  %.0 = select i1 %2, i8 %switch.masked, i8 0
  ret i8 %.0
}